
Dump of file D:\\Git\\Rust\\rust\\build\\x86_64-pc-windows-msvc\\test\\run-fail\\cfg-fail\\a.exe

File Type: EXECUTABLE IMAGE

  0000000140001000: 48 83 EC 28        sub         rsp,28h
  0000000140001004: 48 8B 01           mov         rax,qword ptr [rcx]
  0000000140001007: FF 15 73 11 00 00  call        qword ptr [__guard_dispatch_icall_fptr]
  000000014000100D: 31 C0              xor         eax,eax
  000000014000100F: 48 83 C4 28        add         rsp,28h
  0000000140001013: C3                 ret
  0000000140001014: CC CC CC CC CC CC CC CC CC CC CC CC              лллллллллллл
  0000000140001020: C3                 ret
  0000000140001021: CC CC CC CC CC CC CC CC CC CC CC CC CC CC CC     ллллллллллллллл
  0000000140001030: 0F 0B              ud2
  0000000140001032: CC CC CC CC CC CC CC CC CC CC CC CC CC CC        лллллллллллллл
main:
  0000000140001040: 48 83 EC 28        sub         rsp,28h
  0000000140001044: 49 89 D1           mov         r9,rdx
  0000000140001047: 4C 63 C1           movsxd      r8,ecx
  000000014000104A: 48 8D 05 DF FF FF  lea         rax,[140001030h]
                    FF
  0000000140001051: 48 89 44 24 20     mov         qword ptr [rsp+20h],rax
  0000000140001056: 48 8D 15 B3 11 00  lea         rdx,[anon.5363a79c878434998c7c5a129a213cad.0.llvm.7255667881904126961]
                    00
  000000014000105D: 48 8D 4C 24 20     lea         rcx,[rsp+20h]
  0000000140001062: E8 09 00 00 00     call        _ZN3std2rt19lang_start_internal17h893705af7ddf4cb3E
  0000000140001067: 90                 nop
  0000000140001068: 48 83 C4 28        add         rsp,28h
  000000014000106C: C3                 ret
  000000014000106D: CC CC CC                                         ллл
_ZN3std2rt19lang_start_internal17h893705af7ddf4cb3E:
  0000000140001070: FF 25 F2 10 00 00  jmp         qword ptr [__imp__ZN3std2rt19lang_start_internal17h893705af7ddf4cb3E]
  0000000140001076: CC CC CC CC CC CC CC CC CC CC                    лллллллллл
_guard_check_icall_nop:
  0000000140001080: C2 00 00           ret         0
  0000000140001083: CC CC CC CC CC CC CC CC CC CC CC CC CC           ллллллллллллл
pre_c_initialization:
  0000000140001090: 40 53              push        rbx
  0000000140001092: 48 83 EC 20        sub         rsp,20h
  0000000140001096: B9 01 00 00 00     mov         ecx,1
  000000014000109B: E8 0C 0A 00 00     call        _set_app_type
  00000001400010A0: E8 87 05 00 00     call        _get_startup_file_mode
  00000001400010A5: 8B C8              mov         ecx,eax
  00000001400010A7: E8 36 0A 00 00     call        _set_fmode
  00000001400010AC: E8 6F 05 00 00     call        __scrt_exe_initialize_mta
  00000001400010B1: 8B D8              mov         ebx,eax
  00000001400010B3: E8 5A 0A 00 00     call        __p__commode
  00000001400010B8: B9 01 00 00 00     mov         ecx,1
  00000001400010BD: 89 18              mov         dword ptr [rax],ebx
  00000001400010BF: E8 E4 02 00 00     call        __scrt_initialize_onexit_tables
  00000001400010C4: 84 C0              test        al,al
  00000001400010C6: 74 73              je          000000014000113B
  00000001400010C8: E8 BB 07 00 00     call        _RTC_Initialize
  00000001400010CD: 48 8D 0D FC 07 00  lea         rcx,[_RTC_Terminate]
                    00
  00000001400010D4: E8 7F 04 00 00     call        atexit
  00000001400010D9: E8 46 05 00 00     call        _get_startup_argv_mode
  00000001400010DE: 8B C8              mov         ecx,eax
  00000001400010E0: E8 D3 09 00 00     call        _configure_narrow_argv
  00000001400010E5: 85 C0              test        eax,eax
  00000001400010E7: 75 52              jne         000000014000113B
  00000001400010E9: E8 46 05 00 00     call        ?__scrt_initialize_type_info@@YAXXZ
  00000001400010EE: E8 81 05 00 00     call        __scrt_is_user_matherr_present
  00000001400010F3: 85 C0              test        eax,eax
  00000001400010F5: 74 0C              je          0000000140001103
  00000001400010F7: 48 8D 0D 22 05 00  lea         rcx,[__scrt_exe_initialize_mta]
                    00
  00000001400010FE: E8 AF 09 00 00     call        __setusermatherr
  0000000140001103: E8 78 FF FF FF     call        _guard_check_icall_nop
  0000000140001108: E8 73 FF FF FF     call        _guard_check_icall_nop
  000000014000110D: E8 0E 05 00 00     call        __scrt_exe_initialize_mta
  0000000140001112: 8B C8              mov         ecx,eax
  0000000140001114: E8 ED 09 00 00     call        _configthreadlocale
  0000000140001119: E8 26 05 00 00     call        __acrt_initialize
  000000014000111E: 84 C0              test        al,al
  0000000140001120: 74 05              je          0000000140001127
  0000000140001122: E8 97 09 00 00     call        _initialize_narrow_environment
  0000000140001127: E8 F4 04 00 00     call        __scrt_exe_initialize_mta
  000000014000112C: E8 B3 06 00 00     call        __scrt_initialize_mta
  0000000140001131: 85 C0              test        eax,eax
  0000000140001133: 75 06              jne         000000014000113B
  0000000140001135: 48 83 C4 20        add         rsp,20h
  0000000140001139: 5B                 pop         rbx
  000000014000113A: C3                 ret
  000000014000113B: B9 07 00 00 00     mov         ecx,7
  0000000140001140: E8 53 05 00 00     call        __scrt_fastfail
  0000000140001145: CC                 int         3
  0000000140001146: CC CC CC CC CC CC CC CC CC CC                    лллллллллл
post_pgo_initialization:
  0000000140001150: 48 83 EC 28        sub         rsp,28h
  0000000140001154: E8 FF 04 00 00     call        __scrt_initialize_default_local_stdio_options
  0000000140001159: 33 C0              xor         eax,eax
  000000014000115B: 48 83 C4 28        add         rsp,28h
  000000014000115F: C3                 ret
pre_cpp_initialization:
  0000000140001160: 48 83 EC 28        sub         rsp,28h
  0000000140001164: E8 D7 06 00 00     call        __scrt_set_unhandled_exception_filter
  0000000140001169: E8 B2 04 00 00     call        __scrt_exe_initialize_mta
  000000014000116E: 8B C8              mov         ecx,eax
  0000000140001170: 48 83 C4 28        add         rsp,28h
  0000000140001174: E9 93 09 00 00     jmp         _set_new_mode
  0000000140001179: CC CC CC                                         ллл
__scrt_common_main_seh:
  000000014000117C: 48 89 5C 24 08     mov         qword ptr [rsp+8],rbx
  0000000140001181: 48 89 74 24 10     mov         qword ptr [rsp+10h],rsi
  0000000140001186: 57                 push        rdi
  0000000140001187: 48 83 EC 30        sub         rsp,30h
  000000014000118B: B9 01 00 00 00     mov         ecx,1
  0000000140001190: E8 C7 01 00 00     call        __scrt_initialize_crt
  0000000140001195: 84 C0              test        al,al
  0000000140001197: 0F 84 36 01 00 00  je          00000001400012D3
  000000014000119D: 40 32 F6           xor         sil,sil
  00000001400011A0: 40 88 74 24 20     mov         byte ptr [rsp+20h],sil
  00000001400011A5: E8 76 01 00 00     call        __scrt_acquire_startup_lock
  00000001400011AA: 8A D8              mov         bl,al
  00000001400011AC: 8B 0D 8E 1E 00 00  mov         ecx,dword ptr [__scrt_current_native_startup_state]
  00000001400011B2: 83 F9 01           cmp         ecx,1
  00000001400011B5: 0F 84 23 01 00 00  je          00000001400012DE
  00000001400011BB: 85 C9              test        ecx,ecx
  00000001400011BD: 75 4A              jne         0000000140001209
  00000001400011BF: C7 05 77 1E 00 00  mov         dword ptr [__scrt_current_native_startup_state],1
                    01 00 00 00
  00000001400011C9: 48 8D 15 E8 0F 00  lea         rdx,[__xi_z]
                    00
  00000001400011D0: 48 8D 0D C9 0F 00  lea         rcx,[__xi_a]
                    00
  00000001400011D7: E8 F4 08 00 00     call        _initterm_e
  00000001400011DC: 85 C0              test        eax,eax
  00000001400011DE: 74 0A              je          00000001400011EA
  00000001400011E0: B8 FF 00 00 00     mov         eax,0FFh
  00000001400011E5: E9 D9 00 00 00     jmp         00000001400012C3
  00000001400011EA: 48 8D 15 A7 0F 00  lea         rdx,[__xc_z]
                    00
  00000001400011F1: 48 8D 0D 90 0F 00  lea         rcx,[__xc_a]
                    00
  00000001400011F8: E8 CD 08 00 00     call        _initterm
  00000001400011FD: C7 05 39 1E 00 00  mov         dword ptr [__scrt_current_native_startup_state],2
                    02 00 00 00
  0000000140001207: EB 08              jmp         0000000140001211
  0000000140001209: 40 B6 01           mov         sil,1
  000000014000120C: 40 88 74 24 20     mov         byte ptr [rsp+20h],sil
  0000000140001211: 8A CB              mov         cl,bl
  0000000140001213: E8 B4 02 00 00     call        __scrt_release_startup_lock
  0000000140001218: E8 63 04 00 00     call        __scrt_get_dyn_tls_init_callback
  000000014000121D: 48 8B D8           mov         rbx,rax
  0000000140001220: 48 83 38 00        cmp         qword ptr [rax],0
  0000000140001224: 74 1E              je          0000000140001244
  0000000140001226: 48 8B C8           mov         rcx,rax
  0000000140001229: E8 06 02 00 00     call        __scrt_is_nonwritable_in_current_image
  000000014000122E: 84 C0              test        al,al
  0000000140001230: 74 12              je          0000000140001244
  0000000140001232: 45 33 C0           xor         r8d,r8d
  0000000140001235: 41 8D 50 02        lea         edx,[r8+2]
  0000000140001239: 33 C9              xor         ecx,ecx
  000000014000123B: 48 8B 03           mov         rax,qword ptr [rbx]
  000000014000123E: FF 15 3C 0F 00 00  call        qword ptr [__guard_dispatch_icall_fptr]
  0000000140001244: E8 3F 04 00 00     call        __scrt_get_dyn_tls_dtor_callback
  0000000140001249: 48 8B D8           mov         rbx,rax
  000000014000124C: 48 83 38 00        cmp         qword ptr [rax],0
  0000000140001250: 74 14              je          0000000140001266
  0000000140001252: 48 8B C8           mov         rcx,rax
  0000000140001255: E8 DA 01 00 00     call        __scrt_is_nonwritable_in_current_image
  000000014000125A: 84 C0              test        al,al
  000000014000125C: 74 08              je          0000000140001266
  000000014000125E: 48 8B 0B           mov         rcx,qword ptr [rbx]
  0000000140001261: E8 9A 08 00 00     call        _register_thread_local_exe_atexit_callback
  0000000140001266: E8 59 08 00 00     call        _get_initial_narrow_environment
  000000014000126B: 48 8B F8           mov         rdi,rax
  000000014000126E: E8 7B 08 00 00     call        __p___argv
  0000000140001273: 48 8B 18           mov         rbx,qword ptr [rax]
  0000000140001276: E8 6D 08 00 00     call        __p___argc
  000000014000127B: 4C 8B C7           mov         r8,rdi
  000000014000127E: 48 8B D3           mov         rdx,rbx
  0000000140001281: 8B 08              mov         ecx,dword ptr [rax]
  0000000140001283: E8 B8 FD FF FF     call        main
  0000000140001288: 8B D8              mov         ebx,eax
  000000014000128A: E8 5D 05 00 00     call        __scrt_is_managed_app
  000000014000128F: 84 C0              test        al,al
  0000000140001291: 74 55              je          00000001400012E8
  0000000140001293: 40 84 F6           test        sil,sil
  0000000140001296: 75 05              jne         000000014000129D
  0000000140001298: E8 57 08 00 00     call        _cexit
  000000014000129D: 33 D2              xor         edx,edx
  000000014000129F: B1 01              mov         cl,1
  00000001400012A1: E8 4A 02 00 00     call        __scrt_uninitialize_crt
  00000001400012A6: 8B C3              mov         eax,ebx
  00000001400012A8: EB 19              jmp         00000001400012C3
  00000001400012AA: 8B D8              mov         ebx,eax
  00000001400012AC: E8 3B 05 00 00     call        __scrt_is_managed_app
  00000001400012B1: 84 C0              test        al,al
  00000001400012B3: 74 3B              je          00000001400012F0
  00000001400012B5: 80 7C 24 20 00     cmp         byte ptr [rsp+20h],0
  00000001400012BA: 75 05              jne         00000001400012C1
  00000001400012BC: E8 39 08 00 00     call        _c_exit
  00000001400012C1: 8B C3              mov         eax,ebx
  00000001400012C3: 48 8B 5C 24 40     mov         rbx,qword ptr [rsp+40h]
  00000001400012C8: 48 8B 74 24 48     mov         rsi,qword ptr [rsp+48h]
  00000001400012CD: 48 83 C4 30        add         rsp,30h
  00000001400012D1: 5F                 pop         rdi
  00000001400012D2: C3                 ret
  00000001400012D3: B9 07 00 00 00     mov         ecx,7
  00000001400012D8: E8 BB 03 00 00     call        __scrt_fastfail
  00000001400012DD: 90                 nop
  00000001400012DE: B9 07 00 00 00     mov         ecx,7
  00000001400012E3: E8 B0 03 00 00     call        __scrt_fastfail
  00000001400012E8: 8B CB              mov         ecx,ebx
  00000001400012EA: E8 E7 07 00 00     call        exit
  00000001400012EF: 90                 nop
  00000001400012F0: 8B CB              mov         ecx,ebx
  00000001400012F2: E8 E5 07 00 00     call        _exit
  00000001400012F7: 90                 nop
  00000001400012F8: CC CC CC CC CC CC CC CC                          лллллллл
mainCRTStartup:
  0000000140001300: 48 83 EC 28        sub         rsp,28h
  0000000140001304: E8 67 02 00 00     call        __security_init_cookie
  0000000140001309: 48 83 C4 28        add         rsp,28h
  000000014000130D: E9 6A FE FF FF     jmp         000000014000117C
  0000000140001312: CC CC CC CC CC CC CC CC CC CC CC CC CC CC        лллллллллллллл
__scrt_acquire_startup_lock:
  0000000140001320: 48 83 EC 28        sub         rsp,28h
  0000000140001324: E8 5F 07 00 00     call        __scrt_is_ucrt_dll_in_use
  0000000140001329: 85 C0              test        eax,eax
  000000014000132B: 74 21              je          000000014000134E
  000000014000132D: 65 48 8B 04 25 30  mov         rax,qword ptr gs:[30h]
                    00 00 00
  0000000140001336: 48 8B 48 08        mov         rcx,qword ptr [rax+8]
  000000014000133A: EB 05              jmp         0000000140001341
  000000014000133C: 48 3B C8           cmp         rcx,rax
  000000014000133F: 74 14              je          0000000140001355
  0000000140001341: 33 C0              xor         eax,eax
  0000000140001343: F0 48 0F B1 0D FC  lock cmpxchg qword ptr [__scrt_native_startup_lock],rcx
                    1C 00 00
  000000014000134C: 75 EE              jne         000000014000133C
  000000014000134E: 32 C0              xor         al,al
  0000000140001350: 48 83 C4 28        add         rsp,28h
  0000000140001354: C3                 ret
  0000000140001355: B0 01              mov         al,1
  0000000140001357: EB F7              jmp         0000000140001350
  0000000140001359: CC CC CC                                         ллл
__scrt_initialize_crt:
  000000014000135C: 40 53              push        rbx
  000000014000135E: 48 83 EC 20        sub         rsp,20h
  0000000140001362: 0F B6 05 E7 1C 00  movzx       eax,byte ptr [140003050h]
                    00
  0000000140001369: 85 C9              test        ecx,ecx
  000000014000136B: BB 01 00 00 00     mov         ebx,1
  0000000140001370: 0F 44 C3           cmove       eax,ebx
  0000000140001373: 88 05 D7 1C 00 00  mov         byte ptr [140003050h],al
  0000000140001379: E8 8E 05 00 00     call        __isa_available_init
  000000014000137E: E8 C1 02 00 00     call        __acrt_initialize
  0000000140001383: 84 C0              test        al,al
  0000000140001385: 75 04              jne         000000014000138B
  0000000140001387: 32 C0              xor         al,al
  0000000140001389: EB 14              jmp         000000014000139F
  000000014000138B: E8 B4 02 00 00     call        __acrt_initialize
  0000000140001390: 84 C0              test        al,al
  0000000140001392: 75 09              jne         000000014000139D
  0000000140001394: 33 C9              xor         ecx,ecx
  0000000140001396: E8 A9 02 00 00     call        __acrt_initialize
  000000014000139B: EB EA              jmp         0000000140001387
  000000014000139D: 8A C3              mov         al,bl
  000000014000139F: 48 83 C4 20        add         rsp,20h
  00000001400013A3: 5B                 pop         rbx
  00000001400013A4: C3                 ret
  00000001400013A5: CC CC CC                                         ллл
__scrt_initialize_onexit_tables:
  00000001400013A8: 40 53              push        rbx
  00000001400013AA: 48 83 EC 20        sub         rsp,20h
  00000001400013AE: 80 3D 9C 1C 00 00  cmp         byte ptr [140003051h],0
                    00
  00000001400013B5: 8B D9              mov         ebx,ecx
  00000001400013B7: 75 67              jne         0000000140001420
  00000001400013B9: 83 F9 01           cmp         ecx,1
  00000001400013BC: 77 6A              ja          0000000140001428
  00000001400013BE: E8 C5 06 00 00     call        __scrt_is_ucrt_dll_in_use
  00000001400013C3: 85 C0              test        eax,eax
  00000001400013C5: 74 28              je          00000001400013EF
  00000001400013C7: 85 DB              test        ebx,ebx
  00000001400013C9: 75 24              jne         00000001400013EF
  00000001400013CB: 48 8D 0D 86 1C 00  lea         rcx,[140003058h]
                    00
  00000001400013D2: E8 41 07 00 00     call        _initialize_onexit_table
  00000001400013D7: 85 C0              test        eax,eax
  00000001400013D9: 75 10              jne         00000001400013EB
  00000001400013DB: 48 8D 0D 8E 1C 00  lea         rcx,[140003070h]
                    00
  00000001400013E2: E8 31 07 00 00     call        _initialize_onexit_table
  00000001400013E7: 85 C0              test        eax,eax
  00000001400013E9: 74 2E              je          0000000140001419
  00000001400013EB: 32 C0              xor         al,al
  00000001400013ED: EB 33              jmp         0000000140001422
  00000001400013EF: 66 0F 6F 05 49 0E  movdqa      xmm0,xmmword ptr [__xmm@ffffffffffffffffffffffffffffffff]
                    00 00
  00000001400013F7: 48 83 C8 FF        or          rax,0FFFFFFFFFFFFFFFFh
  00000001400013FB: F3 0F 7F 05 55 1C  movdqu      xmmword ptr [140003058h],xmm0
                    00 00
  0000000140001403: 48 89 05 5E 1C 00  mov         qword ptr [140003068h],rax
                    00
  000000014000140A: F3 0F 7F 05 5E 1C  movdqu      xmmword ptr [140003070h],xmm0
                    00 00
  0000000140001412: 48 89 05 67 1C 00  mov         qword ptr [140003080h],rax
                    00
  0000000140001419: C6 05 31 1C 00 00  mov         byte ptr [140003051h],1
                    01
  0000000140001420: B0 01              mov         al,1
  0000000140001422: 48 83 C4 20        add         rsp,20h
  0000000140001426: 5B                 pop         rbx
  0000000140001427: C3                 ret
  0000000140001428: B9 05 00 00 00     mov         ecx,5
  000000014000142D: E8 66 02 00 00     call        __scrt_fastfail
  0000000140001432: CC                 int         3
  0000000140001433: CC                                               л
__scrt_is_nonwritable_in_current_image:
  0000000140001434: 48 83 EC 18        sub         rsp,18h
  0000000140001438: 4C 8B C1           mov         r8,rcx
  000000014000143B: B8 4D 5A 00 00     mov         eax,5A4Dh
  0000000140001440: 66 39 05 B9 EB FF  cmp         word ptr [140000000h],ax
                    FF
  0000000140001447: 75 78              jne         00000001400014C1
  0000000140001449: 48 63 0D EC EB FF  movsxd      rcx,dword ptr [14000003Ch]
                    FF
  0000000140001450: 48 8D 15 A9 EB FF  lea         rdx,[140000000h]
                    FF
  0000000140001457: 48 03 CA           add         rcx,rdx
  000000014000145A: 81 39 50 45 00 00  cmp         dword ptr [rcx],4550h
  0000000140001460: 75 5F              jne         00000001400014C1
  0000000140001462: B8 0B 02 00 00     mov         eax,20Bh
  0000000140001467: 66 39 41 18        cmp         word ptr [rcx+18h],ax
  000000014000146B: 75 54              jne         00000001400014C1
  000000014000146D: 4C 2B C2           sub         r8,rdx
  0000000140001470: 0F B7 41 14        movzx       eax,word ptr [rcx+14h]
  0000000140001474: 48 8D 51 18        lea         rdx,[rcx+18h]
  0000000140001478: 48 03 D0           add         rdx,rax
  000000014000147B: 0F B7 41 06        movzx       eax,word ptr [rcx+6]
  000000014000147F: 48 8D 0C 80        lea         rcx,[rax+rax*4]
  0000000140001483: 4C 8D 0C CA        lea         r9,[rdx+rcx*8]
  0000000140001487: 48 89 14 24        mov         qword ptr [rsp],rdx
  000000014000148B: 49 3B D1           cmp         rdx,r9
  000000014000148E: 74 18              je          00000001400014A8
  0000000140001490: 8B 4A 0C           mov         ecx,dword ptr [rdx+0Ch]
  0000000140001493: 4C 3B C1           cmp         r8,rcx
  0000000140001496: 72 0A              jb          00000001400014A2
  0000000140001498: 8B 42 08           mov         eax,dword ptr [rdx+8]
  000000014000149B: 03 C1              add         eax,ecx
  000000014000149D: 4C 3B C0           cmp         r8,rax
  00000001400014A0: 72 08              jb          00000001400014AA
  00000001400014A2: 48 83 C2 28        add         rdx,28h
  00000001400014A6: EB DF              jmp         0000000140001487
  00000001400014A8: 33 D2              xor         edx,edx
  00000001400014AA: 48 85 D2           test        rdx,rdx
  00000001400014AD: 75 04              jne         00000001400014B3
  00000001400014AF: 32 C0              xor         al,al
  00000001400014B1: EB 14              jmp         00000001400014C7
  00000001400014B3: 83 7A 24 00        cmp         dword ptr [rdx+24h],0
  00000001400014B7: 7D 04              jge         00000001400014BD
  00000001400014B9: 32 C0              xor         al,al
  00000001400014BB: EB 0A              jmp         00000001400014C7
  00000001400014BD: B0 01              mov         al,1
  00000001400014BF: EB 06              jmp         00000001400014C7
  00000001400014C1: 32 C0              xor         al,al
  00000001400014C3: EB 02              jmp         00000001400014C7
  00000001400014C5: 32 C0              xor         al,al
  00000001400014C7: 48 83 C4 18        add         rsp,18h
  00000001400014CB: C3                 ret
__scrt_release_startup_lock:
  00000001400014CC: 40 53              push        rbx
  00000001400014CE: 48 83 EC 20        sub         rsp,20h
  00000001400014D2: 8A D9              mov         bl,cl
  00000001400014D4: E8 AF 05 00 00     call        __scrt_is_ucrt_dll_in_use
  00000001400014D9: 33 D2              xor         edx,edx
  00000001400014DB: 85 C0              test        eax,eax
  00000001400014DD: 74 0B              je          00000001400014EA
  00000001400014DF: 84 DB              test        bl,bl
  00000001400014E1: 75 07              jne         00000001400014EA
  00000001400014E3: 48 87 15 5E 1B 00  xchg        rdx,qword ptr [__scrt_native_startup_lock]
                    00
  00000001400014EA: 48 83 C4 20        add         rsp,20h
  00000001400014EE: 5B                 pop         rbx
  00000001400014EF: C3                 ret
__scrt_uninitialize_crt:
  00000001400014F0: 40 53              push        rbx
  00000001400014F2: 48 83 EC 20        sub         rsp,20h
  00000001400014F6: 80 3D 53 1B 00 00  cmp         byte ptr [140003050h],0
                    00
  00000001400014FD: 8A D9              mov         bl,cl
  00000001400014FF: 74 04              je          0000000140001505
  0000000140001501: 84 D2              test        dl,dl
  0000000140001503: 75 0C              jne         0000000140001511
  0000000140001505: E8 3A 01 00 00     call        __acrt_initialize
  000000014000150A: 8A CB              mov         cl,bl
  000000014000150C: E8 33 01 00 00     call        __acrt_initialize
  0000000140001511: B0 01              mov         al,1
  0000000140001513: 48 83 C4 20        add         rsp,20h
  0000000140001517: 5B                 pop         rbx
  0000000140001518: C3                 ret
  0000000140001519: CC CC CC                                         ллл
_onexit:
  000000014000151C: 40 53              push        rbx
  000000014000151E: 48 83 EC 20        sub         rsp,20h
  0000000140001522: 48 83 3D 2E 1B 00  cmp         qword ptr [140003058h],0FFFFFFFFFFFFFFFFh
                    00 FF
  000000014000152A: 48 8B D9           mov         rbx,rcx
  000000014000152D: 75 07              jne         0000000140001536
  000000014000152F: E8 F0 05 00 00     call        _crt_atexit
  0000000140001534: EB 0F              jmp         0000000140001545
  0000000140001536: 48 8B D3           mov         rdx,rbx
  0000000140001539: 48 8D 0D 18 1B 00  lea         rcx,[140003058h]
                    00
  0000000140001540: E8 D9 05 00 00     call        _register_onexit_function
  0000000140001545: 33 D2              xor         edx,edx
  0000000140001547: 85 C0              test        eax,eax
  0000000140001549: 48 0F 44 D3        cmove       rdx,rbx
  000000014000154D: 48 8B C2           mov         rax,rdx
  0000000140001550: 48 83 C4 20        add         rsp,20h
  0000000140001554: 5B                 pop         rbx
  0000000140001555: C3                 ret
  0000000140001556: CC CC                                            лл
atexit:
  0000000140001558: 48 83 EC 28        sub         rsp,28h
  000000014000155C: E8 BB FF FF FF     call        _onexit
  0000000140001561: 48 F7 D8           neg         rax
  0000000140001564: 1B C0              sbb         eax,eax
  0000000140001566: F7 D8              neg         eax
  0000000140001568: FF C8              dec         eax
  000000014000156A: 48 83 C4 28        add         rsp,28h
  000000014000156E: C3                 ret
  000000014000156F: CC                                               л
__security_init_cookie:
  0000000140001570: 48 89 5C 24 20     mov         qword ptr [rsp+20h],rbx
  0000000140001575: 55                 push        rbp
  0000000140001576: 48 8B EC           mov         rbp,rsp
  0000000140001579: 48 83 EC 20        sub         rsp,20h
  000000014000157D: 48 8B 05 A4 1A 00  mov         rax,qword ptr [__security_cookie]
                    00
  0000000140001584: 48 BB 32 A2 DF 2D  mov         rbx,2B992DDFA232h
                    99 2B 00 00
  000000014000158E: 48 3B C3           cmp         rax,rbx
  0000000140001591: 75 74              jne         0000000140001607
  0000000140001593: 48 83 65 18 00     and         qword ptr [rbp+18h],0
  0000000140001598: 48 8D 4D 18        lea         rcx,[rbp+18h]
  000000014000159C: FF 15 86 0A 00 00  call        qword ptr [__imp_GetSystemTimeAsFileTime]
  00000001400015A2: 48 8B 45 18        mov         rax,qword ptr [rbp+18h]
  00000001400015A6: 48 89 45 10        mov         qword ptr [rbp+10h],rax
  00000001400015AA: FF 15 70 0A 00 00  call        qword ptr [__imp_GetCurrentThreadId]
  00000001400015B0: 8B C0              mov         eax,eax
  00000001400015B2: 48 31 45 10        xor         qword ptr [rbp+10h],rax
  00000001400015B6: FF 15 5C 0A 00 00  call        qword ptr [__imp_GetCurrentProcessId]
  00000001400015BC: 8B C0              mov         eax,eax
  00000001400015BE: 48 8D 4D 20        lea         rcx,[rbp+20h]
  00000001400015C2: 48 31 45 10        xor         qword ptr [rbp+10h],rax
  00000001400015C6: FF 15 44 0A 00 00  call        qword ptr [__imp_QueryPerformanceCounter]
  00000001400015CC: 8B 45 20           mov         eax,dword ptr [rbp+20h]
  00000001400015CF: 48 8D 4D 10        lea         rcx,[rbp+10h]
  00000001400015D3: 48 C1 E0 20        shl         rax,20h
  00000001400015D7: 48 33 45 20        xor         rax,qword ptr [rbp+20h]
  00000001400015DB: 48 33 45 10        xor         rax,qword ptr [rbp+10h]
  00000001400015DF: 48 33 C1           xor         rax,rcx
  00000001400015E2: 48 B9 FF FF FF FF  mov         rcx,0FFFFFFFFFFFFh
                    FF FF 00 00
  00000001400015EC: 48 23 C1           and         rax,rcx
  00000001400015EF: 48 B9 33 A2 DF 2D  mov         rcx,2B992DDFA233h
                    99 2B 00 00
  00000001400015F9: 48 3B C3           cmp         rax,rbx
  00000001400015FC: 48 0F 44 C1        cmove       rax,rcx
  0000000140001600: 48 89 05 21 1A 00  mov         qword ptr [__security_cookie],rax
                    00
  0000000140001607: 48 8B 5C 24 48     mov         rbx,qword ptr [rsp+48h]
  000000014000160C: 48 F7 D0           not         rax
  000000014000160F: 48 89 05 0A 1A 00  mov         qword ptr [__security_cookie_complement],rax
                    00
  0000000140001616: 48 83 C4 20        add         rsp,20h
  000000014000161A: 5D                 pop         rbp
  000000014000161B: C3                 ret
  000000014000161C: CC CC CC CC                                      лллл
__scrt_exe_initialize_mta:
  0000000140001620: 33 C0              xor         eax,eax
  0000000140001622: C3                 ret
  0000000140001623: CC                                               л
_get_startup_argv_mode:
  0000000140001624: B8 01 00 00 00     mov         eax,1
  0000000140001629: C3                 ret
  000000014000162A: CC CC                                            лл
_get_startup_file_mode:
  000000014000162C: B8 00 40 00 00     mov         eax,4000h
  0000000140001631: C3                 ret
  0000000140001632: CC CC                                            лл
?__scrt_initialize_type_info@@YAXXZ:
  0000000140001634: 48 8D 0D 55 1A 00  lea         rcx,[?__type_info_root_node@@3U__type_info_node@@A]
                    00
  000000014000163B: 48 FF 25 EE 09 00  jmp         qword ptr [__imp_InitializeSListHead]
                    00
  0000000140001642: CC CC                                            лл
__acrt_initialize:
  0000000140001644: B0 01              mov         al,1
  0000000140001646: C3                 ret
  0000000140001647: CC                                               л
__local_stdio_printf_options:
  0000000140001648: 48 8D 05 51 1A 00  lea         rax,[?_OptionsStorage@?1??__local_stdio_printf_options@@9@4_KA]
                    00
  000000014000164F: C3                 ret
__local_stdio_scanf_options:
  0000000140001650: 48 8D 05 51 1A 00  lea         rax,[?_OptionsStorage@?1??__local_stdio_scanf_options@@9@4_KA]
                    00
  0000000140001657: C3                 ret
__scrt_initialize_default_local_stdio_options:
  0000000140001658: 48 83 EC 28        sub         rsp,28h
  000000014000165C: E8 E7 FF FF FF     call        __local_stdio_printf_options
  0000000140001661: 48 83 08 24        or          qword ptr [rax],24h
  0000000140001665: E8 E6 FF FF FF     call        __local_stdio_scanf_options
  000000014000166A: 48 83 08 02        or          qword ptr [rax],2
  000000014000166E: 48 83 C4 28        add         rsp,28h
  0000000140001672: C3                 ret
  0000000140001673: CC                                               л
__scrt_is_user_matherr_present:
  0000000140001674: 33 C0              xor         eax,eax
  0000000140001676: 39 05 88 19 00 00  cmp         dword ptr [__scrt_default_matherr],eax
  000000014000167C: 0F 94 C0           sete        al
  000000014000167F: C3                 ret
__scrt_get_dyn_tls_init_callback:
  0000000140001680: 48 8D 05 39 1A 00  lea         rax,[__dyn_tls_init_callback]
                    00
  0000000140001687: C3                 ret
__scrt_get_dyn_tls_dtor_callback:
  0000000140001688: 48 8D 05 29 1A 00  lea         rax,[__dyn_tls_dtor_callback]
                    00
  000000014000168F: C3                 ret
__crt_debugger_hook:
  0000000140001690: 83 25 19 1A 00 00  and         dword ptr [__scrt_debugger_hook_flag],0
                    00
  0000000140001697: C3                 ret
__scrt_fastfail:
  0000000140001698: 48 89 5C 24 08     mov         qword ptr [rsp+8],rbx
  000000014000169D: 55                 push        rbp
  000000014000169E: 48 8D AC 24 40 FB  lea         rbp,[rsp-4C0h]
                    FF FF
  00000001400016A6: 48 81 EC C0 05 00  sub         rsp,5C0h
                    00
  00000001400016AD: 8B D9              mov         ebx,ecx
  00000001400016AF: B9 17 00 00 00     mov         ecx,17h
  00000001400016B4: E8 DB 03 00 00     call        IsProcessorFeaturePresent
  00000001400016B9: 85 C0              test        eax,eax
  00000001400016BB: 74 04              je          00000001400016C1
  00000001400016BD: 8B CB              mov         ecx,ebx
  00000001400016BF: CD 29              int         29h
  00000001400016C1: B9 03 00 00 00     mov         ecx,3
  00000001400016C6: E8 C5 FF FF FF     call        __crt_debugger_hook
  00000001400016CB: 33 D2              xor         edx,edx
  00000001400016CD: 48 8D 4D F0        lea         rcx,[rbp-10h]
  00000001400016D1: 41 B8 D0 04 00 00  mov         r8d,4D0h
  00000001400016D7: E8 C4 03 00 00     call        memset
  00000001400016DC: 48 8D 4D F0        lea         rcx,[rbp-10h]
  00000001400016E0: FF 15 52 09 00 00  call        qword ptr [__imp_RtlCaptureContext]
  00000001400016E6: 48 8B 9D E8 00 00  mov         rbx,qword ptr [rbp+0E8h]
                    00
  00000001400016ED: 48 8D 95 D8 04 00  lea         rdx,[rbp+4D8h]
                    00
  00000001400016F4: 48 8B CB           mov         rcx,rbx
  00000001400016F7: 45 33 C0           xor         r8d,r8d
  00000001400016FA: FF 15 40 09 00 00  call        qword ptr [__imp_RtlLookupFunctionEntry]
  0000000140001700: 48 85 C0           test        rax,rax
  0000000140001703: 74 3C              je          0000000140001741
  0000000140001705: 48 83 64 24 38 00  and         qword ptr [rsp+38h],0
  000000014000170B: 48 8D 8D E0 04 00  lea         rcx,[rbp+4E0h]
                    00
  0000000140001712: 48 8B 95 D8 04 00  mov         rdx,qword ptr [rbp+4D8h]
                    00
  0000000140001719: 4C 8B C8           mov         r9,rax
  000000014000171C: 48 89 4C 24 30     mov         qword ptr [rsp+30h],rcx
  0000000140001721: 4C 8B C3           mov         r8,rbx
  0000000140001724: 48 8D 8D E8 04 00  lea         rcx,[rbp+4E8h]
                    00
  000000014000172B: 48 89 4C 24 28     mov         qword ptr [rsp+28h],rcx
  0000000140001730: 48 8D 4D F0        lea         rcx,[rbp-10h]
  0000000140001734: 48 89 4C 24 20     mov         qword ptr [rsp+20h],rcx
  0000000140001739: 33 C9              xor         ecx,ecx
  000000014000173B: FF 15 07 09 00 00  call        qword ptr [__imp_RtlVirtualUnwind]
  0000000140001741: 48 8B 85 C8 04 00  mov         rax,qword ptr [rbp+4C8h]
                    00
  0000000140001748: 48 8D 4C 24 50     lea         rcx,[rsp+50h]
  000000014000174D: 48 89 85 E8 00 00  mov         qword ptr [rbp+0E8h],rax
                    00
  0000000140001754: 33 D2              xor         edx,edx
  0000000140001756: 48 8D 85 C8 04 00  lea         rax,[rbp+4C8h]
                    00
  000000014000175D: 41 B8 98 00 00 00  mov         r8d,98h
  0000000140001763: 48 83 C0 08        add         rax,8
  0000000140001767: 48 89 85 88 00 00  mov         qword ptr [rbp+88h],rax
                    00
  000000014000176E: E8 2D 03 00 00     call        memset
  0000000140001773: 48 8B 85 C8 04 00  mov         rax,qword ptr [rbp+4C8h]
                    00
  000000014000177A: 48 89 44 24 60     mov         qword ptr [rsp+60h],rax
  000000014000177F: C7 44 24 50 15 00  mov         dword ptr [rsp+50h],40000015h
                    00 40
  0000000140001787: C7 44 24 54 01 00  mov         dword ptr [rsp+54h],1
                    00 00
  000000014000178F: FF 15 6B 08 00 00  call        qword ptr [__imp_IsDebuggerPresent]
  0000000140001795: 83 F8 01           cmp         eax,1
  0000000140001798: 48 8D 44 24 50     lea         rax,[rsp+50h]
  000000014000179D: 48 89 44 24 40     mov         qword ptr [rsp+40h],rax
  00000001400017A2: 48 8D 45 F0        lea         rax,[rbp-10h]
  00000001400017A6: 0F 94 C3           sete        bl
  00000001400017A9: 48 89 44 24 48     mov         qword ptr [rsp+48h],rax
  00000001400017AE: 33 C9              xor         ecx,ecx
  00000001400017B0: FF 15 AA 08 00 00  call        qword ptr [__imp_SetUnhandledExceptionFilter]
  00000001400017B6: 48 8D 4C 24 40     lea         rcx,[rsp+40h]
  00000001400017BB: FF 15 97 08 00 00  call        qword ptr [__imp_UnhandledExceptionFilter]
  00000001400017C1: 85 C0              test        eax,eax
  00000001400017C3: 75 0C              jne         00000001400017D1
  00000001400017C5: 84 DB              test        bl,bl
  00000001400017C7: 75 08              jne         00000001400017D1
  00000001400017C9: 8D 48 03           lea         ecx,[rax+3]
  00000001400017CC: E8 BF FE FF FF     call        __crt_debugger_hook
  00000001400017D1: 48 8B 9C 24 D0 05  mov         rbx,qword ptr [rsp+5D0h]
                    00 00
  00000001400017D9: 48 81 C4 C0 05 00  add         rsp,5C0h
                    00
  00000001400017E0: 5D                 pop         rbp
  00000001400017E1: C3                 ret
  00000001400017E2: CC CC                                            лл
__scrt_initialize_mta:
  00000001400017E4: E9 37 FE FF FF     jmp         __scrt_exe_initialize_mta
  00000001400017E9: CC CC CC                                         ллл
__scrt_is_managed_app:
  00000001400017EC: 48 83 EC 28        sub         rsp,28h
  00000001400017F0: 33 C9              xor         ecx,ecx
  00000001400017F2: FF 15 10 08 00 00  call        qword ptr [__imp_GetModuleHandleW]
  00000001400017F8: 48 85 C0           test        rax,rax
  00000001400017FB: 74 3A              je          0000000140001837
  00000001400017FD: B9 4D 5A 00 00     mov         ecx,5A4Dh
  0000000140001802: 66 39 08           cmp         word ptr [rax],cx
  0000000140001805: 75 30              jne         0000000140001837
  0000000140001807: 48 63 48 3C        movsxd      rcx,dword ptr [rax+3Ch]
  000000014000180B: 48 03 C8           add         rcx,rax
  000000014000180E: 81 39 50 45 00 00  cmp         dword ptr [rcx],4550h
  0000000140001814: 75 21              jne         0000000140001837
  0000000140001816: B8 0B 02 00 00     mov         eax,20Bh
  000000014000181B: 66 39 41 18        cmp         word ptr [rcx+18h],ax
  000000014000181F: 75 16              jne         0000000140001837
  0000000140001821: 83 B9 84 00 00 00  cmp         dword ptr [rcx+84h],0Eh
                    0E
  0000000140001828: 76 0D              jbe         0000000140001837
  000000014000182A: 83 B9 F8 00 00 00  cmp         dword ptr [rcx+0F8h],0
                    00
  0000000140001831: 74 04              je          0000000140001837
  0000000140001833: B0 01              mov         al,1
  0000000140001835: EB 02              jmp         0000000140001839
  0000000140001837: 32 C0              xor         al,al
  0000000140001839: 48 83 C4 28        add         rsp,28h
  000000014000183D: C3                 ret
  000000014000183E: CC CC                                            лл
__scrt_set_unhandled_exception_filter:
  0000000140001840: 48 8D 0D 09 00 00  lea         rcx,[__scrt_unhandled_exception_filter]
                    00
  0000000140001847: 48 FF 25 12 08 00  jmp         qword ptr [__imp_SetUnhandledExceptionFilter]
                    00
  000000014000184E: CC CC                                            лл
__scrt_unhandled_exception_filter:
  0000000140001850: 48 83 EC 28        sub         rsp,28h
  0000000140001854: 48 8B 01           mov         rax,qword ptr [rcx]
  0000000140001857: 81 38 63 73 6D E0  cmp         dword ptr [rax],0E06D7363h
  000000014000185D: 75 1C              jne         000000014000187B
  000000014000185F: 83 78 18 04        cmp         dword ptr [rax+18h],4
  0000000140001863: 75 16              jne         000000014000187B
  0000000140001865: 8B 48 20           mov         ecx,dword ptr [rax+20h]
  0000000140001868: 8D 81 E0 FA 6C E6  lea         eax,[rcx-19930520h]
  000000014000186E: 83 F8 02           cmp         eax,2
  0000000140001871: 76 0F              jbe         0000000140001882
  0000000140001873: 81 F9 00 40 99 01  cmp         ecx,1994000h
  0000000140001879: 74 07              je          0000000140001882
  000000014000187B: 33 C0              xor         eax,eax
  000000014000187D: 48 83 C4 28        add         rsp,28h
  0000000140001881: C3                 ret
  0000000140001882: E8 A3 02 00 00     call        terminate
  0000000140001887: CC                 int         3
_RTC_Initialize:
  0000000140001888: 48 89 5C 24 08     mov         qword ptr [rsp+8],rbx
  000000014000188D: 57                 push        rdi
  000000014000188E: 48 83 EC 20        sub         rsp,20h
  0000000140001892: 48 8D 1D 07 0E 00  lea         rbx,[__rtc_izz]
                    00
  0000000140001899: 48 8D 3D 00 0E 00  lea         rdi,[__rtc_izz]
                    00
  00000001400018A0: EB 12              jmp         00000001400018B4
  00000001400018A2: 48 8B 03           mov         rax,qword ptr [rbx]
  00000001400018A5: 48 85 C0           test        rax,rax
  00000001400018A8: 74 06              je          00000001400018B0
  00000001400018AA: FF 15 D0 08 00 00  call        qword ptr [__guard_dispatch_icall_fptr]
  00000001400018B0: 48 83 C3 08        add         rbx,8
  00000001400018B4: 48 3B DF           cmp         rbx,rdi
  00000001400018B7: 72 E9              jb          00000001400018A2
  00000001400018B9: 48 8B 5C 24 30     mov         rbx,qword ptr [rsp+30h]
  00000001400018BE: 48 83 C4 20        add         rsp,20h
  00000001400018C2: 5F                 pop         rdi
  00000001400018C3: C3                 ret
  00000001400018C4: CC CC CC CC CC CC CC CC CC CC CC CC              лллллллллллл
_RTC_Terminate:
  00000001400018D0: 48 89 5C 24 08     mov         qword ptr [rsp+8],rbx
  00000001400018D5: 57                 push        rdi
  00000001400018D6: 48 83 EC 20        sub         rsp,20h
  00000001400018DA: 48 8D 1D CF 0D 00  lea         rbx,[__rtc_tzz]
                    00
  00000001400018E1: 48 8D 3D C8 0D 00  lea         rdi,[__rtc_tzz]
                    00
  00000001400018E8: EB 12              jmp         00000001400018FC
  00000001400018EA: 48 8B 03           mov         rax,qword ptr [rbx]
  00000001400018ED: 48 85 C0           test        rax,rax
  00000001400018F0: 74 06              je          00000001400018F8
  00000001400018F2: FF 15 88 08 00 00  call        qword ptr [__guard_dispatch_icall_fptr]
  00000001400018F8: 48 83 C3 08        add         rbx,8
  00000001400018FC: 48 3B DF           cmp         rbx,rdi
  00000001400018FF: 72 E9              jb          00000001400018EA
  0000000140001901: 48 8B 5C 24 30     mov         rbx,qword ptr [rsp+30h]
  0000000140001906: 48 83 C4 20        add         rsp,20h
  000000014000190A: 5F                 pop         rdi
  000000014000190B: C3                 ret
__isa_available_init:
  000000014000190C: 48 89 5C 24 10     mov         qword ptr [rsp+10h],rbx
  0000000140001911: 48 89 74 24 18     mov         qword ptr [rsp+18h],rsi
  0000000140001916: 57                 push        rdi
  0000000140001917: 48 83 EC 10        sub         rsp,10h
  000000014000191B: 33 C0              xor         eax,eax
  000000014000191D: C7 05 E5 16 00 00  mov         dword ptr [__isa_enabled],2
                    02 00 00 00
  0000000140001927: 33 C9              xor         ecx,ecx
  0000000140001929: C7 05 D5 16 00 00  mov         dword ptr [__isa_available],1
                    01 00 00 00
  0000000140001933: 0F A2              cpuid
  0000000140001935: 44 8B C1           mov         r8d,ecx
  0000000140001938: 33 FF              xor         edi,edi
  000000014000193A: 44 8B CB           mov         r9d,ebx
  000000014000193D: 41 81 F0 6E 74 65  xor         r8d,6C65746Eh
                    6C
  0000000140001944: 41 81 F1 47 65 6E  xor         r9d,756E6547h
                    75
  000000014000194B: 44 8B D2           mov         r10d,edx
  000000014000194E: 8B F0              mov         esi,eax
  0000000140001950: 33 C9              xor         ecx,ecx
  0000000140001952: 8D 47 01           lea         eax,[rdi+1]
  0000000140001955: 45 0B C8           or          r9d,r8d
  0000000140001958: 0F A2              cpuid
  000000014000195A: 41 81 F2 69 6E 65  xor         r10d,49656E69h
                    49
  0000000140001961: 89 04 24           mov         dword ptr [rsp],eax
  0000000140001964: 45 0B CA           or          r9d,r10d
  0000000140001967: 89 5C 24 04        mov         dword ptr [rsp+4],ebx
  000000014000196B: 44 8B D9           mov         r11d,ecx
  000000014000196E: 89 4C 24 08        mov         dword ptr [rsp+8],ecx
  0000000140001972: 89 54 24 0C        mov         dword ptr [rsp+0Ch],edx
  0000000140001976: 75 50              jne         00000001400019C8
  0000000140001978: 48 83 0D 90 16 00  or          qword ptr [__memcpy_nt_iters],0FFFFFFFFFFFFFFFFh
                    00 FF
  0000000140001980: 25 F0 3F FF 0F     and         eax,0FFF3FF0h
  0000000140001985: 3D C0 06 01 00     cmp         eax,106C0h
  000000014000198A: 74 28              je          00000001400019B4
  000000014000198C: 3D 60 06 02 00     cmp         eax,20660h
  0000000140001991: 74 21              je          00000001400019B4
  0000000140001993: 3D 70 06 02 00     cmp         eax,20670h
  0000000140001998: 74 1A              je          00000001400019B4
  000000014000199A: 05 B0 F9 FC FF     add         eax,0FFFCF9B0h
  000000014000199F: 83 F8 20           cmp         eax,20h
  00000001400019A2: 77 24              ja          00000001400019C8
  00000001400019A4: 48 B9 01 00 01 00  mov         rcx,100010001h
                    01 00 00 00
  00000001400019AE: 48 0F A3 C1        bt          rcx,rax
  00000001400019B2: 73 14              jae         00000001400019C8
  00000001400019B4: 44 8B 05 F9 16 00  mov         r8d,dword ptr [__favor]
                    00
  00000001400019BB: 41 83 C8 01        or          r8d,1
  00000001400019BF: 44 89 05 EE 16 00  mov         dword ptr [__favor],r8d
                    00
  00000001400019C6: EB 07              jmp         00000001400019CF
  00000001400019C8: 44 8B 05 E5 16 00  mov         r8d,dword ptr [__favor]
                    00
  00000001400019CF: B8 07 00 00 00     mov         eax,7
  00000001400019D4: 3B F0              cmp         esi,eax
  00000001400019D6: 7C 26              jl          00000001400019FE
  00000001400019D8: 33 C9              xor         ecx,ecx
  00000001400019DA: 0F A2              cpuid
  00000001400019DC: 89 04 24           mov         dword ptr [rsp],eax
  00000001400019DF: 8B FB              mov         edi,ebx
  00000001400019E1: 89 5C 24 04        mov         dword ptr [rsp+4],ebx
  00000001400019E5: 89 4C 24 08        mov         dword ptr [rsp+8],ecx
  00000001400019E9: 89 54 24 0C        mov         dword ptr [rsp+0Ch],edx
  00000001400019ED: 0F BA E3 09        bt          ebx,9
  00000001400019F1: 73 0B              jae         00000001400019FE
  00000001400019F3: 41 83 C8 02        or          r8d,2
  00000001400019F7: 44 89 05 B6 16 00  mov         dword ptr [__favor],r8d
                    00
  00000001400019FE: 41 0F BA E3 14     bt          r11d,14h
  0000000140001A03: 73 70              jae         0000000140001A75
  0000000140001A05: C7 05 F9 15 00 00  mov         dword ptr [__isa_available],2
                    02 00 00 00
  0000000140001A0F: C7 05 F3 15 00 00  mov         dword ptr [__isa_enabled],6
                    06 00 00 00
  0000000140001A19: 41 0F BA E3 1B     bt          r11d,1Bh
  0000000140001A1E: 73 55              jae         0000000140001A75
  0000000140001A20: 41 0F BA E3 1C     bt          r11d,1Ch
  0000000140001A25: 73 4E              jae         0000000140001A75
  0000000140001A27: 33 C9              xor         ecx,ecx
  0000000140001A29: 0F 01 D0           xgetbv
  0000000140001A2C: 48 C1 E2 20        shl         rdx,20h
  0000000140001A30: 48 0B D0           or          rdx,rax
  0000000140001A33: 48 89 54 24 20     mov         qword ptr [rsp+20h],rdx
  0000000140001A38: 48 8B 44 24 20     mov         rax,qword ptr [rsp+20h]
  0000000140001A3D: 24 06              and         al,6
  0000000140001A3F: 3C 06              cmp         al,6
  0000000140001A41: 75 32              jne         0000000140001A75
  0000000140001A43: 8B 05 C3 15 00 00  mov         eax,dword ptr [__isa_enabled]
  0000000140001A49: 83 C8 08           or          eax,8
  0000000140001A4C: C7 05 B2 15 00 00  mov         dword ptr [__isa_available],3
                    03 00 00 00
  0000000140001A56: 89 05 B0 15 00 00  mov         dword ptr [__isa_enabled],eax
  0000000140001A5C: 40 F6 C7 20        test        dil,20h
  0000000140001A60: 74 13              je          0000000140001A75
  0000000140001A62: 83 C8 20           or          eax,20h
  0000000140001A65: C7 05 99 15 00 00  mov         dword ptr [__isa_available],5
                    05 00 00 00
  0000000140001A6F: 89 05 97 15 00 00  mov         dword ptr [__isa_enabled],eax
  0000000140001A75: 48 8B 5C 24 28     mov         rbx,qword ptr [rsp+28h]
  0000000140001A7A: 33 C0              xor         eax,eax
  0000000140001A7C: 48 8B 74 24 30     mov         rsi,qword ptr [rsp+30h]
  0000000140001A81: 48 83 C4 10        add         rsp,10h
  0000000140001A85: 5F                 pop         rdi
  0000000140001A86: C3                 ret
  0000000140001A87: CC                                               л
__scrt_is_ucrt_dll_in_use:
  0000000140001A88: 33 C0              xor         eax,eax
  0000000140001A8A: 39 05 A0 15 00 00  cmp         dword ptr [__scrt_ucrt_dll_is_in_use],eax
  0000000140001A90: 0F 95 C0           setne       al
  0000000140001A93: C3                 ret
IsProcessorFeaturePresent:
  0000000140001A94: FF 25 B6 05 00 00  jmp         qword ptr [__imp_IsProcessorFeaturePresent]
__C_specific_handler:
  0000000140001A9A: FF 25 D0 05 00 00  jmp         qword ptr [__imp___C_specific_handler]
memset:
  0000000140001AA0: FF 25 D2 05 00 00  jmp         qword ptr [__imp_memset]
_seh_filter_exe:
  0000000140001AA6: FF 25 6C 06 00 00  jmp         qword ptr [__imp__seh_filter_exe]
_set_app_type:
  0000000140001AAC: FF 25 26 06 00 00  jmp         qword ptr [__imp__set_app_type]
__setusermatherr:
  0000000140001AB2: FF 25 F0 05 00 00  jmp         qword ptr [__imp___setusermatherr]
_configure_narrow_argv:
  0000000140001AB8: FF 25 2A 06 00 00  jmp         qword ptr [__imp__configure_narrow_argv]
_initialize_narrow_environment:
  0000000140001ABE: FF 25 F4 05 00 00  jmp         qword ptr [__imp__initialize_narrow_environment]
_get_initial_narrow_environment:
  0000000140001AC4: FF 25 F6 05 00 00  jmp         qword ptr [__imp__get_initial_narrow_environment]
_initterm:
  0000000140001ACA: FF 25 F8 05 00 00  jmp         qword ptr [__imp__initterm]
_initterm_e:
  0000000140001AD0: FF 25 FA 05 00 00  jmp         qword ptr [__imp__initterm_e]
exit:
  0000000140001AD6: FF 25 44 06 00 00  jmp         qword ptr [__imp_exit]
_exit:
  0000000140001ADC: FF 25 FE 05 00 00  jmp         qword ptr [__imp__exit]
_set_fmode:
  0000000140001AE2: FF 25 68 06 00 00  jmp         qword ptr [__imp__set_fmode]
__p___argc:
  0000000140001AE8: FF 25 02 06 00 00  jmp         qword ptr [__imp___p___argc]
__p___argv:
  0000000140001AEE: FF 25 04 06 00 00  jmp         qword ptr [__imp___p___argv]
_cexit:
  0000000140001AF4: FF 25 06 06 00 00  jmp         qword ptr [__imp__cexit]
_c_exit:
  0000000140001AFA: FF 25 08 06 00 00  jmp         qword ptr [__imp__c_exit]
_register_thread_local_exe_atexit_callback:
  0000000140001B00: FF 25 0A 06 00 00  jmp         qword ptr [__imp__register_thread_local_exe_atexit_callback]
_configthreadlocale:
  0000000140001B06: FF 25 8C 05 00 00  jmp         qword ptr [__imp__configthreadlocale]
_set_new_mode:
  0000000140001B0C: FF 25 76 05 00 00  jmp         qword ptr [__imp__set_new_mode]
__p__commode:
  0000000140001B12: FF 25 40 06 00 00  jmp         qword ptr [__imp___p__commode]
_initialize_onexit_table:
  0000000140001B18: FF 25 12 06 00 00  jmp         qword ptr [__imp__initialize_onexit_table]
_register_onexit_function:
  0000000140001B1E: FF 25 14 06 00 00  jmp         qword ptr [__imp__register_onexit_function]
_crt_atexit:
  0000000140001B24: FF 25 16 06 00 00  jmp         qword ptr [__imp__crt_atexit]
terminate:
  0000000140001B2A: FF 25 F8 05 00 00  jmp         qword ptr [__imp_terminate]
  0000000140001B30: CC                 int         3
  0000000140001B31: CC                 int         3
  0000000140001B32: CC                 int         3
  0000000140001B33: CC                 int         3
  0000000140001B34: CC                 int         3
  0000000140001B35: CC                 int         3
  0000000140001B36: 66 66 0F 1F 84 00  nop         word ptr [rax+rax]
                    00 00 00 00
_guard_dispatch_icall_nop:
  0000000140001B40: FF E0              jmp         rax
`__scrt_common_main_seh'::`1'::filt$0:
  0000000140001B42: 40 55              push        rbp
  0000000140001B44: 48 83 EC 20        sub         rsp,20h
  0000000140001B48: 48 8B EA           mov         rbp,rdx
  0000000140001B4B: 48 8B 01           mov         rax,qword ptr [rcx]
  0000000140001B4E: 48 8B D1           mov         rdx,rcx
  0000000140001B51: 8B 08              mov         ecx,dword ptr [rax]
  0000000140001B53: E8 4E FF FF FF     call        _seh_filter_exe
  0000000140001B58: 90                 nop
  0000000140001B59: 48 83 C4 20        add         rsp,20h
  0000000140001B5D: 5D                 pop         rbp
  0000000140001B5E: C3                 ret
  0000000140001B5F: CC                 int         3
__scrt_is_nonwritable_in_current_image$filt$0:
  0000000140001B60: 40 55              push        rbp
  0000000140001B62: 48 8B EA           mov         rbp,rdx
  0000000140001B65: 48 8B 01           mov         rax,qword ptr [rcx]
  0000000140001B68: 33 C9              xor         ecx,ecx
  0000000140001B6A: 81 38 05 00 00 C0  cmp         dword ptr [rax],0C0000005h
  0000000140001B70: 0F 94 C1           sete        cl
  0000000140001B73: 8B C1              mov         eax,ecx
  0000000140001B75: 5D                 pop         rbp
  0000000140001B76: C3                 ret
  0000000140001B77: CC                 int         3

  Summary

        1000 .data
        1000 .pdata
        1000 .rdata
        1000 .reloc
        1000 .text
